; Function Attrs: null_pointer_is_valid sspstrong uwtable
define internal i32 @dissect_tplink_smarthome_message(ptr noundef %0, ptr noundef %1, ptr noundef %2, ptr readnone captures(none) %3) #0 {
  %5 = tail call i32 @tvb_captured_length(ptr noundef %0)
  %6 = getelementptr inbounds nuw i8, ptr %1, i64 280
  %7 = load i32, ptr %6, align 8
  switch i32 %7, label %test_tplink_smarthome.exit.thread [
    i32 3, label %9
    i32 2, label %8
  ]

8:                                                ; preds = %4
  br label %9

9:                                                ; preds = %4, %8
  %.058 = phi i32 [ 4, %8 ], [ 0, %4 ]
  %10 = tail call i32 @tvb_captured_length_remaining(ptr noundef %0, i32 noundef range(i32 0, 5) %.058)
  %11 = icmp slt i32 %10, 2
  br i1 %11, label %test_tplink_smarthome.exit.thread, label %12

12:                                               ; preds = %9
  %13 = tail call zeroext i8 @tvb_get_uint8(ptr noundef %0, i32 noundef range(i32 0, 5) %.058)
  %.not.i = icmp eq i8 %13, -48
  br i1 %.not.i, label %test_tplink_smarthome.exit, label %test_tplink_smarthome.exit.thread

test_tplink_smarthome.exit:                       ; preds = %12
  %14 = or disjoint i32 %.058, 1
  %15 = tail call zeroext i8 @tvb_get_uint8(ptr noundef %0, i32 noundef %14)
  switch i8 %15, label %test_tplink_smarthome.exit.thread [
    i8 -14, label %16
    i8 -83, label %16
  ]

16:                                               ; preds = %test_tplink_smarthome.exit, %test_tplink_smarthome.exit
  %17 = getelementptr inbounds nuw i8, ptr %1, i64 8
  %18 = load ptr, ptr %17, align 8
  tail call void @col_set_str(ptr noundef %18, i32 noundef 35, ptr noundef nonnull @.str.7)
  %19 = load ptr, ptr %17, align 8
  tail call void @col_clear(ptr noundef %19, i32 noundef 25)
  %20 = load i32, ptr @proto_tplink_smarthome, align 4
  %21 = tail call ptr @proto_tree_add_item(ptr noundef %2, i32 noundef %20, ptr noundef %0, i32 noundef 0, i32 noundef -1, i32 noundef 0)
  %22 = load i32, ptr @ett_tplink_smarthome, align 4
  %23 = tail call ptr @proto_item_add_subtree(ptr noundef %21, i32 noundef %22)
  %24 = load i32, ptr %6, align 8
  %25 = icmp eq i32 %24, 2
  br i1 %25, label %26, label %29

26:                                               ; preds = %16
  %27 = load i32, ptr @hf_tplink_smarthome_Len, align 4
  %28 = tail call ptr @proto_tree_add_item(ptr noundef %23, i32 noundef %27, ptr noundef %0, i32 noundef 0, i32 noundef 4, i32 noundef 0)
  br label %29

29:                                               ; preds = %26, %16
  %30 = sub i32 %5, %.058
  %31 = getelementptr inbounds nuw i8, ptr %1, i64 408
  %32 = load ptr, ptr %31, align 8
  %33 = add i32 %5, 1
  %34 = sub i32 %33, %.058
  %35 = sext i32 %34 to i64
  %36 = tail call noalias ptr @wmem_alloc(ptr noundef %32, i64 noundef %35) #3
  %37 = icmp sgt i32 %30, 0
  br i1 %37, label %.lr.ph, label %._crit_edge

.lr.ph:                                           ; preds = %29
  %38 = load ptr, ptr @g_ascii_table, align 8
  %wide.trip.count = zext nneg i32 %30 to i64
  br label %39

39:                                               ; preds = %.lr.ph, %39
  %indvars.iv = phi i64 [ 0, %.lr.ph ], [ %indvars.iv.next, %39 ]
  %.05966 = phi i8 [ -85, %.lr.ph ], [ %40, %39 ]
  %.06164 = phi i32 [ %.058, %.lr.ph ], [ %48, %39 ]
  %40 = tail call zeroext i8 @tvb_get_uint8(ptr noundef %0, i32 noundef %.06164)
  %41 = xor i8 %40, %.05966
  %42 = zext i8 %41 to i64
  %43 = getelementptr i16, ptr %38, i64 %42
  %44 = load i16, ptr %43, align 2
  %45 = and i16 %44, 64
  %.not = icmp eq i16 %45, 0
  %46 = select i1 %.not, i8 46, i8 %41
  %47 = getelementptr i8, ptr %36, i64 %indvars.iv
  store i8 %46, ptr %47, align 1
  %48 = add nuw i32 %.06164, 1
  %indvars.iv.next = add nuw nsw i64 %indvars.iv, 1
  %exitcond.not = icmp eq i64 %indvars.iv.next, %wide.trip.count
  br i1 %exitcond.not, label %._crit_edge.loopexit, label %39, !llvm.loop !6

._crit_edge.loopexit:                             ; preds = %39
  %49 = zext nneg i32 %30 to i64
  br label %._crit_edge

._crit_edge:                                      ; preds = %29, %._crit_edge.loopexit
  %.060.lcssa = phi i64 [ %49, %._crit_edge.loopexit ], [ 0, %29 ]
  %50 = getelementptr i8, ptr %36, i64 %.060.lcssa
  store i8 0, ptr %50, align 1
  %51 = getelementptr inbounds nuw i8, ptr %1, i64 288
  %52 = load i32, ptr %51, align 8
  %53 = icmp eq i32 %52, 9999
  br i1 %53, label %58, label %54

54:                                               ; preds = %._crit_edge
  %55 = getelementptr inbounds nuw i8, ptr %1, i64 284
  %56 = load i32, ptr %55, align 4
  %57 = icmp eq i32 %56, 9999
  %.str.13..str.3 = select i1 %57, ptr @.str.13, ptr @.str.3
  br label %58

58:                                               ; preds = %54, %._crit_edge
  %.057 = phi ptr [ @.str.12, %._crit_edge ], [ %.str.13..str.3, %54 ]
  %59 = load i32, ptr @hf_tplink_smarthome_Msg, align 4
  %60 = tail call ptr (ptr, i32, ptr, i32, i32, ptr, ptr, ...) @proto_tree_add_string_format(ptr noundef %23, i32 noundef %59, ptr noundef %0, i32 noundef %.058, i32 noundef -1, ptr noundef %36, ptr noundef nonnull @.str.14, ptr noundef nonnull %.057, ptr noundef %36)
  %61 = tail call ptr @tvb_new_child_real_data(ptr noundef %0, ptr noundef %36, i32 noundef %30, i32 noundef %30)
  tail call void @add_new_data_source(ptr noundef %1, ptr noundef %61, ptr noundef nonnull @.str.15)
  %62 = tail call ptr @find_dissector(ptr noundef nonnull @.str.16)
  %63 = tail call i32 @call_dissector(ptr noundef %62, ptr noundef %61, ptr noundef %1, ptr noundef %21)
  %64 = load ptr, ptr %17, align 8
  %65 = load i32, ptr %6, align 8
  %66 = icmp eq i32 %65, 3
  %67 = select i1 %66, ptr @.str.18, ptr @.str.19
  tail call void (ptr, i32, ptr, ...) @col_add_fstr(ptr noundef %64, i32 noundef 25, ptr noundef nonnull @.str.17, ptr noundef nonnull %67, ptr noundef nonnull %.057, ptr noundef %36)
  %68 = tail call i32 @tvb_captured_length(ptr noundef %0)
  br label %test_tplink_smarthome.exit.thread

test_tplink_smarthome.exit.thread:                ; preds = %test_tplink_smarthome.exit, %12, %9, %4, %58
  %.0 = phi i32 [ %68, %58 ], [ 0, %4 ], [ 0, %test_tplink_smarthome.exit ], [ 0, %9 ], [ 0, %12 ]
  ret i32 %.0
}